target datalayout = "e-m:e-p270:32:32-p271:32:32-p272:64:64-i64:64-i128:128-f80:128-n8:16:32:64-S128"
target triple = "x86_64-pc-linux-gnu"

%struct.SUNStepper_ = type { ptr, ptr, ptr, i32 }

; Function Attrs: nounwind uwtable
define internal i32 @arkSUNStepperSetStopTime(ptr noundef %0, double noundef %1) #0 {
  %3 = alloca i32, align 4
  %4 = alloca ptr, align 8
  %5 = alloca double, align 8
  %6 = alloca ptr, align 8
  %7 = alloca ptr, align 8
  %8 = alloca i32, align 4
  store ptr %0, ptr %4, align 8, !tbaa !23
  store double %1, ptr %5, align 8, !tbaa !26
  call void @llvm.lifetime.start.p0(i64 8, ptr %6) #3
  %9 = load ptr, ptr %4, align 8, !tbaa !23
  %10 = getelementptr inbounds nuw %struct.SUNStepper_, ptr %9, i32 0, i32 2
  %11 = load ptr, ptr %10, align 8, !tbaa !30
  store ptr %11, ptr %6, align 8, !tbaa !33
  call void @llvm.lifetime.start.p0(i64 8, ptr %7) #3
  %12 = load ptr, ptr %4, align 8, !tbaa !23
  %13 = call i32 @SUNStepper_GetContent(ptr noundef %12, ptr noundef %7)
  %14 = load ptr, ptr %7, align 8, !tbaa !3
  %15 = load double, ptr %5, align 8, !tbaa !26
  %16 = call i32 @ARKodeSetStopTime(ptr noundef %14, double noundef %15)
  %17 = load ptr, ptr %4, align 8, !tbaa !23
  %18 = getelementptr inbounds nuw %struct.SUNStepper_, ptr %17, i32 0, i32 3
  store i32 %16, ptr %18, align 8, !tbaa !35
  %19 = load ptr, ptr %4, align 8, !tbaa !23
  %20 = getelementptr inbounds nuw %struct.SUNStepper_, ptr %19, i32 0, i32 3
  %21 = load i32, ptr %20, align 8, !tbaa !35
  %22 = icmp ne i32 %21, 0
  br i1 %22, label %23, label %24

23:                                               ; preds = %2
  store i32 -9990, ptr %3, align 4
  store i32 1, ptr %8, align 4
  br label %25

24:                                               ; preds = %2
  store i32 0, ptr %3, align 4
  store i32 1, ptr %8, align 4
  br label %25

25:                                               ; preds = %24, %23
  call void @llvm.lifetime.end.p0(i64 8, ptr %7) #3
  call void @llvm.lifetime.end.p0(i64 8, ptr %6) #3
  %26 = load i32, ptr %3, align 4
  ret i32 %26
}