; Function Attrs: nounwind uwtable
define internal range(i32 -9990, 1) i32 @arkSUNStepperSetStopTime(ptr noundef %0, double noundef %1) #0 {
  %3 = alloca ptr, align 8
  call void @llvm.lifetime.start.p0(i64 8, ptr nonnull %3) #3
  %4 = call i32 @SUNStepper_GetContent(ptr noundef %0, ptr noundef nonnull %3) #3
  %5 = load ptr, ptr %3, align 8, !tbaa !20
  %6 = call i32 @ARKodeSetStopTime(ptr noundef %5, double noundef %1) #3
  %7 = getelementptr inbounds nuw i8, ptr %0, i64 24
  store i32 %6, ptr %7, align 8, !tbaa !21
  %.not = icmp eq i32 %6, 0
  %. = select i1 %.not, i32 0, i32 -9990
  call void @llvm.lifetime.end.p0(i64 8, ptr nonnull %3) #3
  ret i32 %.
}